target datalayout = "e-m:e-p270:32:32-p271:32:32-p272:64:64-i64:64-i128:128-f80:128-n8:16:32:64-S128"
target triple = "x86_64-unknown-linux-gnu"

%"class.icu_75::UMutex" = type { [40 x i8], %"struct.std::atomic", ptr }
%"struct.std::atomic" = type { %"struct.std::__atomic_base" }
%"struct.std::__atomic_base" = type { ptr }
%"class.icu_75::ICUNotifier" = type { ptr, ptr }
%"class.icu_75::Mutex" = type { ptr }
%"class.icu_75::UVector" = type { %"class.icu_75::UObject", i32, i32, ptr, ptr, ptr }
%"class.icu_75::UObject" = type { ptr }

@_ZN6icu_75L10notifyLockE = internal global %"class.icu_75::UMutex" zeroinitializer, align 8

; Function Attrs: mustprogress nounwind uwtable
define linkonce_odr void @_ZN6icu_755MutexD2Ev(ptr noundef nonnull align 8 dereferenceable(8) %this) unnamed_addr #0 comdat align 2 personality ptr @__gxx_personality_v0 {
entry:
  %this.addr = alloca ptr, align 8
  store ptr %this, ptr %this.addr, align 8
  %this1 = load ptr, ptr %this.addr, align 8
  %fMutex = getelementptr inbounds %"class.icu_75::Mutex", ptr %this1, i32 0, i32 0
  %0 = load ptr, ptr %fMutex, align 8
  invoke void @umtx_unlock_75(ptr noundef %0)
          to label %invoke.cont unwind label %terminate.lpad

invoke.cont:                                      ; preds = %entry
  ret void

terminate.lpad:                                   ; preds = %entry
  %1 = landingpad { ptr, i32 }
          catch ptr null
  %2 = extractvalue { ptr, i32 } %1, 0
  call void @__clang_call_terminate(ptr %2) #7
  unreachable
}

; Function Attrs: mustprogress nounwind uwtable
define linkonce_odr noundef i32 @_ZNK6icu_757UVector4sizeEv(ptr noundef nonnull align 8 dereferenceable(40) %this) #0 comdat align 2 {
entry:
  %this.addr = alloca ptr, align 8
  store ptr %this, ptr %this.addr, align 8
  %this1 = load ptr, ptr %this.addr, align 8
  %count = getelementptr inbounds %"class.icu_75::UVector", ptr %this1, i32 0, i32 1
  %0 = load i32, ptr %count, align 8
  ret i32 %0
}

; Function Attrs: mustprogress uwtable
define linkonce_odr void @_ZN6icu_755MutexC2EPNS_6UMutexE(ptr noundef nonnull align 8 dereferenceable(8) %this, ptr noundef %mutex) unnamed_addr #2 comdat align 2 {
entry:
  %this.addr = alloca ptr, align 8
  %mutex.addr = alloca ptr, align 8
  store ptr %this, ptr %this.addr, align 8
  store ptr %mutex, ptr %mutex.addr, align 8
  %this1 = load ptr, ptr %this.addr, align 8
  %fMutex = getelementptr inbounds %"class.icu_75::Mutex", ptr %this1, i32 0, i32 0
  %0 = load ptr, ptr %mutex.addr, align 8
  store ptr %0, ptr %fMutex, align 8
  %fMutex2 = getelementptr inbounds %"class.icu_75::Mutex", ptr %this1, i32 0, i32 0
  %1 = load ptr, ptr %fMutex2, align 8
  call void @umtx_lock_75(ptr noundef %1)
  ret void
}

; Function Attrs: mustprogress nounwind uwtable
define internal noundef signext i8 @_ZL9U_SUCCESS10UErrorCode(i32 noundef %code) #0 {
entry:
  %code.addr = alloca i32, align 4
  store i32 %code, ptr %code.addr, align 4
  %0 = load i32, ptr %code.addr, align 4
  %cmp = icmp sle i32 %0, 0
  %conv = zext i1 %cmp to i8
  ret i8 %conv
}

; Function Attrs: mustprogress uwtable
define void @_ZN6icu_7511ICUNotifier14removeListenerEPKNS_13EventListenerER10UErrorCode(ptr noundef nonnull align 8 dereferenceable(16) %this, ptr noundef %l, ptr noundef nonnull align 4 dereferenceable(4) %status) unnamed_addr #2 align 2 personality ptr @__gxx_personality_v0 {
entry:
  %this.addr = alloca ptr, align 8
  %l.addr = alloca ptr, align 8
  %status.addr = alloca ptr, align 8
  %lmx = alloca %"class.icu_75::Mutex", align 8
  %i = alloca i32, align 4
  %e = alloca i32, align 4
  %exn.slot = alloca ptr, align 8
  %ehselector.slot = alloca i32, align 4
  %el = alloca ptr, align 8
  %cleanup.dest.slot = alloca i32, align 4
  store ptr %this, ptr %this.addr, align 8
  store ptr %l, ptr %l.addr, align 8
  store ptr %status, ptr %status.addr, align 8
  %this1 = load ptr, ptr %this.addr, align 8
  %0 = load ptr, ptr %status.addr, align 8
  %1 = load i32, ptr %0, align 4
  %call = call noundef signext i8 @_ZL9U_SUCCESS10UErrorCode(i32 noundef %1)
  %tobool = icmp ne i8 %call, 0
  br i1 %tobool, label %if.then, label %if.end25

if.then:                                          ; preds = %entry
  %2 = load ptr, ptr %l.addr, align 8
  %cmp = icmp eq ptr %2, null
  br i1 %cmp, label %if.then2, label %if.end

if.then2:                                         ; preds = %if.then
  %3 = load ptr, ptr %status.addr, align 8
  store i32 1, ptr %3, align 4
  br label %if.end25

if.end:                                           ; preds = %if.then
  call void @_ZN6icu_755MutexC2EPNS_6UMutexE(ptr noundef nonnull align 8 dereferenceable(8) %lmx, ptr noundef @_ZN6icu_75L10notifyLockE)
  %listeners = getelementptr inbounds %"class.icu_75::ICUNotifier", ptr %this1, i32 0, i32 1
  %4 = load ptr, ptr %listeners, align 8
  %cmp3 = icmp ne ptr %4, null
  br i1 %cmp3, label %if.then4, label %if.end24

if.then4:                                         ; preds = %if.end
  store i32 0, ptr %i, align 4
  %listeners5 = getelementptr inbounds %"class.icu_75::ICUNotifier", ptr %this1, i32 0, i32 1
  %5 = load ptr, ptr %listeners5, align 8
  %call6 = invoke noundef i32 @_ZNK6icu_757UVector4sizeEv(ptr noundef nonnull align 8 dereferenceable(40) %5)
          to label %invoke.cont unwind label %lpad

invoke.cont:                                      ; preds = %if.then4
  store i32 %call6, ptr %e, align 4
  br label %for.cond

for.cond:                                         ; preds = %for.inc, %invoke.cont
  %6 = load i32, ptr %i, align 4
  %7 = load i32, ptr %e, align 4
  %cmp7 = icmp slt i32 %6, %7
  br i1 %cmp7, label %for.body, label %for.end

for.body:                                         ; preds = %for.cond
  %listeners8 = getelementptr inbounds %"class.icu_75::ICUNotifier", ptr %this1, i32 0, i32 1
  %8 = load ptr, ptr %listeners8, align 8
  %9 = load i32, ptr %i, align 4
  %call10 = invoke noundef ptr @_ZNK6icu_757UVector9elementAtEi(ptr noundef nonnull align 8 dereferenceable(40) %8, i32 noundef %9)
          to label %invoke.cont9 unwind label %lpad

invoke.cont9:                                     ; preds = %for.body
  store ptr %call10, ptr %el, align 8
  %10 = load ptr, ptr %l.addr, align 8
  %11 = load ptr, ptr %el, align 8
  %cmp11 = icmp eq ptr %10, %11
  br i1 %cmp11, label %if.then12, label %if.end23

if.then12:                                        ; preds = %invoke.cont9
  %listeners13 = getelementptr inbounds %"class.icu_75::ICUNotifier", ptr %this1, i32 0, i32 1
  %12 = load ptr, ptr %listeners13, align 8
  %13 = load i32, ptr %i, align 4
  invoke void @_ZN6icu_757UVector15removeElementAtEi(ptr noundef nonnull align 8 dereferenceable(40) %12, i32 noundef %13)
          to label %invoke.cont14 unwind label %lpad

invoke.cont14:                                    ; preds = %if.then12
  %listeners15 = getelementptr inbounds %"class.icu_75::ICUNotifier", ptr %this1, i32 0, i32 1
  %14 = load ptr, ptr %listeners15, align 8
  %call17 = invoke noundef i32 @_ZNK6icu_757UVector4sizeEv(ptr noundef nonnull align 8 dereferenceable(40) %14)
          to label %invoke.cont16 unwind label %lpad

invoke.cont16:                                    ; preds = %invoke.cont14
  %cmp18 = icmp eq i32 %call17, 0
  br i1 %cmp18, label %if.then19, label %if.end22

if.then19:                                        ; preds = %invoke.cont16
  %listeners20 = getelementptr inbounds %"class.icu_75::ICUNotifier", ptr %this1, i32 0, i32 1
  %15 = load ptr, ptr %listeners20, align 8
  %isnull = icmp eq ptr %15, null
  br i1 %isnull, label %delete.end, label %delete.notnull

delete.notnull:                                   ; preds = %if.then19
  %vtable = load ptr, ptr %15, align 8
  %vfn = getelementptr inbounds ptr, ptr %vtable, i64 1
  %16 = load ptr, ptr %vfn, align 8
  call void %16(ptr noundef nonnull align 8 dereferenceable(40) %15) #6
  br label %delete.end

delete.end:                                       ; preds = %delete.notnull, %if.then19
  %listeners21 = getelementptr inbounds %"class.icu_75::ICUNotifier", ptr %this1, i32 0, i32 1
  store ptr null, ptr %listeners21, align 8
  br label %if.end22

lpad:                                             ; preds = %invoke.cont14, %if.then12, %for.body, %if.then4
  %17 = landingpad { ptr, i32 }
          cleanup
  %18 = extractvalue { ptr, i32 } %17, 0
  store ptr %18, ptr %exn.slot, align 8
  %19 = extractvalue { ptr, i32 } %17, 1
  store i32 %19, ptr %ehselector.slot, align 4
  call void @_ZN6icu_755MutexD2Ev(ptr noundef nonnull align 8 dereferenceable(8) %lmx) #6
  br label %eh.resume

if.end22:                                         ; preds = %delete.end, %invoke.cont16
  store i32 1, ptr %cleanup.dest.slot, align 4
  br label %cleanup

if.end23:                                         ; preds = %invoke.cont9
  br label %for.inc

for.inc:                                          ; preds = %if.end23
  %20 = load i32, ptr %i, align 4
  %inc = add nsw i32 %20, 1
  store i32 %inc, ptr %i, align 4
  br label %for.cond, !llvm.loop !6

for.end:                                          ; preds = %for.cond
  br label %if.end24

if.end24:                                         ; preds = %for.end, %if.end
  store i32 0, ptr %cleanup.dest.slot, align 4
  br label %cleanup

cleanup:                                          ; preds = %if.end24, %if.end22
  call void @_ZN6icu_755MutexD2Ev(ptr noundef nonnull align 8 dereferenceable(8) %lmx) #6
  %cleanup.dest = load i32, ptr %cleanup.dest.slot, align 4
  switch i32 %cleanup.dest, label %unreachable [
    i32 0, label %cleanup.cont
    i32 1, label %if.end25
  ]

cleanup.cont:                                     ; preds = %cleanup
  br label %if.end25

if.end25:                                         ; preds = %cleanup.cont, %cleanup, %if.then2, %entry
  ret void

eh.resume:                                        ; preds = %lpad
  %exn = load ptr, ptr %exn.slot, align 8
  %sel = load i32, ptr %ehselector.slot, align 4
  %lpad.val = insertvalue { ptr, i32 } poison, ptr %exn, 0
  %lpad.val26 = insertvalue { ptr, i32 } %lpad.val, i32 %sel, 1
  resume { ptr, i32 } %lpad.val26

unreachable:                                      ; preds = %cleanup
  unreachable
}