; Function Attrs: mustprogress uwtable
define void @_ZN6icu_7511ICUNotifier14removeListenerEPKNS_13EventListenerER10UErrorCode(ptr nocapture noundef nonnull align 8 dereferenceable(16) %this, ptr noundef readnone %l, ptr nocapture noundef nonnull align 4 dereferenceable(4) %status) unnamed_addr #7 align 2 personality ptr @__gxx_personality_v0 {
entry:
  %0 = load i32, ptr %status, align 4
  %cmp.i = icmp sgt i32 %0, 0
  br i1 %cmp.i, label %if.end25, label %if.then

if.then:                                          ; preds = %entry
  %cmp = icmp eq ptr %l, null
  br i1 %cmp, label %if.then2, label %if.end

if.then2:                                         ; preds = %if.then
  store i32 1, ptr %status, align 4
  br label %if.end25

if.end:                                           ; preds = %if.then
  tail call void @umtx_lock_75(ptr noundef nonnull @_ZN6icu_75L10notifyLockE)
  %listeners = getelementptr inbounds i8, ptr %this, i64 8
  %1 = load ptr, ptr %listeners, align 8
  %cmp3.not = icmp eq ptr %1, null
  br i1 %cmp3.not, label %cleanup, label %if.then4

if.then4:                                         ; preds = %if.end
  %count.i = getelementptr inbounds i8, ptr %1, i64 8
  %2 = load i32, ptr %count.i, align 8
  %cmp715 = icmp sgt i32 %2, 0
  br i1 %cmp715, label %for.body, label %cleanup

for.body:                                         ; preds = %if.then4, %for.inc
  %i.016 = phi i32 [ %inc, %for.inc ], [ 0, %if.then4 ]
  %3 = load ptr, ptr %listeners, align 8
  %call10 = invoke noundef ptr @_ZNK6icu_757UVector9elementAtEi(ptr noundef nonnull align 8 dereferenceable(40) %3, i32 noundef %i.016)
          to label %invoke.cont9 unwind label %lpad.loopexit

invoke.cont9:                                     ; preds = %for.body
  %cmp11 = icmp eq ptr %call10, %l
  br i1 %cmp11, label %if.then12, label %for.inc

if.then12:                                        ; preds = %invoke.cont9
  %4 = load ptr, ptr %listeners, align 8
  invoke void @_ZN6icu_757UVector15removeElementAtEi(ptr noundef nonnull align 8 dereferenceable(40) %4, i32 noundef %i.016)
          to label %invoke.cont14 unwind label %lpad.loopexit.split-lp

invoke.cont14:                                    ; preds = %if.then12
  %5 = load ptr, ptr %listeners, align 8
  %count.i7 = getelementptr inbounds i8, ptr %5, i64 8
  %6 = load i32, ptr %count.i7, align 8
  %cmp18 = icmp eq i32 %6, 0
  br i1 %cmp18, label %delete.end, label %cleanup

delete.end:                                       ; preds = %invoke.cont14
  %vtable = load ptr, ptr %5, align 8
  %vfn = getelementptr inbounds i8, ptr %vtable, i64 8
  %7 = load ptr, ptr %vfn, align 8
  tail call void %7(ptr noundef nonnull align 8 dereferenceable(40) %5) #9
  store ptr null, ptr %listeners, align 8
  br label %cleanup

lpad.loopexit:                                    ; preds = %for.body
  %lpad.loopexit11 = landingpad { ptr, i32 }
          cleanup
  br label %lpad

lpad.loopexit.split-lp:                           ; preds = %if.then12
  %lpad.loopexit.split-lp12 = landingpad { ptr, i32 }
          cleanup
  br label %lpad

lpad:                                             ; preds = %lpad.loopexit.split-lp, %lpad.loopexit
  %lpad.phi = phi { ptr, i32 } [ %lpad.loopexit11, %lpad.loopexit ], [ %lpad.loopexit.split-lp12, %lpad.loopexit.split-lp ]
  invoke void @umtx_unlock_75(ptr noundef nonnull @_ZN6icu_75L10notifyLockE)
          to label %_ZN6icu_755MutexD2Ev.exit unwind label %terminate.lpad.i

terminate.lpad.i:                                 ; preds = %lpad
  %8 = landingpad { ptr, i32 }
          catch ptr null
  %9 = extractvalue { ptr, i32 } %8, 0
  tail call void @__clang_call_terminate(ptr %9) #10
  unreachable

_ZN6icu_755MutexD2Ev.exit:                        ; preds = %lpad
  resume { ptr, i32 } %lpad.phi

for.inc:                                          ; preds = %invoke.cont9
  %inc = add nuw nsw i32 %i.016, 1
  %exitcond.not = icmp eq i32 %inc, %2
  br i1 %exitcond.not, label %cleanup, label %for.body, !llvm.loop !6

cleanup:                                          ; preds = %for.inc, %if.then4, %if.end, %invoke.cont14, %delete.end
  invoke void @umtx_unlock_75(ptr noundef nonnull @_ZN6icu_75L10notifyLockE)
          to label %if.end25 unwind label %terminate.lpad.i8

terminate.lpad.i8:                                ; preds = %cleanup
  %10 = landingpad { ptr, i32 }
          catch ptr null
  %11 = extractvalue { ptr, i32 } %10, 0
  tail call void @__clang_call_terminate(ptr %11) #10
  unreachable

if.end25:                                         ; preds = %cleanup, %if.then2, %entry
  ret void
}